; Function Attrs: nofree nounwind null_pointer_is_valid sspstrong memory(readwrite, inaccessiblemem: none) uwtable
define internal void @c_ares_ghi_cb(ptr noundef captures(address_is_null) %0, i32 noundef %1, i32 %2, ptr noundef readonly captures(address_is_null) %3) #14 {
  %5 = icmp eq i32 %1, 0
  %6 = icmp ne ptr %3, null
  %or.cond = and i1 %5, %6
  %7 = icmp ne ptr %0, null
  %or.cond3 = and i1 %7, %or.cond
  br i1 %or.cond3, label %8, label %22

8:                                                ; preds = %4
  %9 = getelementptr inbounds nuw i8, ptr %3, i64 20
  %10 = load i32, ptr %9, align 4
  %11 = load i32, ptr %0, align 8
  %12 = icmp eq i32 %10, %11
  br i1 %12, label %13, label %22

13:                                               ; preds = %8
  %14 = getelementptr inbounds nuw i8, ptr %0, i64 8
  %15 = load ptr, ptr %14, align 8
  %16 = getelementptr inbounds nuw i8, ptr %3, i64 24
  %17 = load ptr, ptr %16, align 8
  %18 = load ptr, ptr %17, align 8
  %19 = sext i32 %10 to i64
  tail call void @llvm.memcpy.p0.p0.i64(ptr noundef align 1 %15, ptr noundef align 1 %18, i64 noundef range(i64 -2147483648, 2147483648) %19, i1 noundef false) #24
  %20 = load i32, ptr %9, align 4
  %21 = getelementptr inbounds nuw i8, ptr %0, i64 4
  store i32 %20, ptr %21, align 4
  br label %22

22:                                               ; preds = %13, %8, %4
  ret void
}